target datalayout = "e-m:e-p270:32:32-p271:32:32-p272:64:64-i64:64-i128:128-f80:128-n8:16:32:64-S128"
target triple = "x86_64-unknown-linux-gnu"

%struct.QNum = type { %struct.QObjectBase_, i32, %union.anon }
%struct.QObjectBase_ = type { i32, i64 }
%union.anon = type { i64 }
%struct.QObject = type { %struct.QObjectBase_ }

@.str.7 = private unnamed_addr constant [39 x i8] c"QTYPE_NONE < type && type < QTYPE__MAX\00", align 1
@.str.8 = private unnamed_addr constant [35 x i8] c"../qemu/qobject/qobject-internal.h\00", align 1
@__PRETTY_FUNCTION__.qobject_init = private unnamed_addr constant [36 x i8] c"void qobject_init(QObject *, QType)\00", align 1

; Function Attrs: nounwind sspstrong uwtable
define internal void @qobject_init(ptr noundef %obj, i32 noundef %type) #0 {
entry:
  %obj.addr = alloca ptr, align 8
  %type.addr = alloca i32, align 4
  store ptr %obj, ptr %obj.addr, align 8
  store i32 %type, ptr %type.addr, align 4
  %0 = load i32, ptr %type.addr, align 4
  %cmp = icmp ult i32 0, %0
  br i1 %cmp, label %land.lhs.true, label %if.else

land.lhs.true:                                    ; preds = %entry
  %1 = load i32, ptr %type.addr, align 4
  %cmp1 = icmp ult i32 %1, 7
  br i1 %cmp1, label %if.then, label %if.else

if.then:                                          ; preds = %land.lhs.true
  br label %if.end

if.else:                                          ; preds = %land.lhs.true, %entry
  call void @__assert_fail(ptr noundef @.str.7, ptr noundef @.str.8, i32 noundef 17, ptr noundef @__PRETTY_FUNCTION__.qobject_init) #5
  unreachable

if.end:                                           ; preds = %if.then
  %2 = load ptr, ptr %obj.addr, align 8
  %base = getelementptr inbounds %struct.QObject, ptr %2, i32 0, i32 0
  %refcnt = getelementptr inbounds %struct.QObjectBase_, ptr %base, i32 0, i32 1
  store i64 1, ptr %refcnt, align 8
  %3 = load i32, ptr %type.addr, align 4
  %4 = load ptr, ptr %obj.addr, align 8
  %base2 = getelementptr inbounds %struct.QObject, ptr %4, i32 0, i32 0
  %type3 = getelementptr inbounds %struct.QObjectBase_, ptr %base2, i32 0, i32 0
  store i32 %3, ptr %type3, align 8
  ret void
}

; Function Attrs: nounwind sspstrong uwtable
define dso_local ptr @qnum_from_double(double noundef %value) #0 {
entry:
  %value.addr = alloca double, align 8
  %qn = alloca ptr, align 8
  %_obj2 = alloca ptr, align 8
  %tmp = alloca ptr, align 8
  %__mptr = alloca ptr, align 8
  %tmp1 = alloca ptr, align 8
  store double %value, ptr %value.addr, align 8
  %call = call noalias ptr @g_malloc_n(i64 noundef 1, i64 noundef 32) #4
  store ptr %call, ptr %qn, align 8
  %0 = load ptr, ptr %qn, align 8
  store ptr %0, ptr %_obj2, align 8
  %1 = load ptr, ptr %_obj2, align 8
  %tobool = icmp ne ptr %1, null
  br i1 %tobool, label %cond.true, label %cond.false

cond.true:                                        ; preds = %entry
  %2 = load ptr, ptr %_obj2, align 8
  %base = getelementptr inbounds %struct.QNum, ptr %2, i32 0, i32 0
  store ptr %base, ptr %__mptr, align 8
  %3 = load ptr, ptr %__mptr, align 8
  %add.ptr = getelementptr i8, ptr %3, i64 0
  store ptr %add.ptr, ptr %tmp1, align 8
  %4 = load ptr, ptr %tmp1, align 8
  br label %cond.end

cond.false:                                       ; preds = %entry
  br label %cond.end

cond.end:                                         ; preds = %cond.false, %cond.true
  %cond = phi ptr [ %4, %cond.true ], [ null, %cond.false ]
  store ptr %cond, ptr %tmp, align 8
  %5 = load ptr, ptr %tmp, align 8
  call void @qobject_init(ptr noundef %5, i32 noundef 2)
  %6 = load ptr, ptr %qn, align 8
  %kind = getelementptr inbounds %struct.QNum, ptr %6, i32 0, i32 1
  store i32 2, ptr %kind, align 8
  %7 = load double, ptr %value.addr, align 8
  %8 = load ptr, ptr %qn, align 8
  %u = getelementptr inbounds %struct.QNum, ptr %8, i32 0, i32 2
  store double %7, ptr %u, align 8
  %9 = load ptr, ptr %qn, align 8
  ret ptr %9
}